target datalayout = "e-m:e-p270:32:32-p271:32:32-p272:64:64-i64:64-i128:128-f80:128-n8:16:32:64-S128"
target triple = "x86_64-pc-linux-gnu"

%struct.fetch_config = type { ptr, ptr }

@the_repository = external global ptr, align 8

; Function Attrs: nounwind uwtable
define dso_local void @fetch_config_from_gitmodules(ptr noundef %0, ptr noundef %1) #0 {
  %3 = alloca ptr, align 8
  %4 = alloca ptr, align 8
  %5 = alloca %struct.fetch_config, align 8
  store ptr %0, ptr %3, align 8, !tbaa !28
  store ptr %1, ptr %4, align 8, !tbaa !28
  call void @llvm.lifetime.start.p0(i64 16, ptr %5) #9
  %6 = getelementptr inbounds nuw %struct.fetch_config, ptr %5, i32 0, i32 0
  %7 = load ptr, ptr %3, align 8, !tbaa !28
  store ptr %7, ptr %6, align 8, !tbaa !115
  %8 = getelementptr inbounds nuw %struct.fetch_config, ptr %5, i32 0, i32 1
  %9 = load ptr, ptr %4, align 8, !tbaa !28
  store ptr %9, ptr %8, align 8, !tbaa !117
  %10 = load ptr, ptr @the_repository, align 8, !tbaa !31
  call void @config_from_gitmodules(ptr noundef @gitmodules_fetch_config, ptr noundef %10, ptr noundef %5)
  call void @llvm.lifetime.end.p0(i64 16, ptr %5) #9
  ret void
}