; Function Attrs: nounwind uwtable
define dso_local void @fetch_config_from_gitmodules(ptr noundef %0, ptr noundef %1) local_unnamed_addr #0 {
  %3 = alloca %struct.fetch_config, align 8
  call void @llvm.lifetime.start.p0(i64 16, ptr nonnull %3) #15
  store ptr %0, ptr %3, align 8, !tbaa !107
  %4 = getelementptr inbounds nuw i8, ptr %3, i64 8
  store ptr %1, ptr %4, align 8, !tbaa !110
  %5 = load ptr, ptr @the_repository, align 8, !tbaa !54
  call fastcc void @config_from_gitmodules(ptr noundef nonnull @gitmodules_fetch_config, ptr noundef %5, ptr noundef nonnull %3)
  call void @llvm.lifetime.end.p0(i64 16, ptr nonnull %3) #15
  ret void
}